target datalayout = "e-m:e-p270:32:32-p271:32:32-p272:64:64-i64:64-i128:128-f80:128-n8:16:32:64-S128"
target triple = "x86_64-pc-linux-gnu"

; Function Attrs: mustprogress nounwind uwtable
define noundef zeroext i1 @_ZN6casadi10Integrator8all_zeroEPKdx(ptr noundef %0, i64 noundef %1) #5 align 2 {
  %3 = alloca i1, align 1
  %4 = alloca ptr, align 8
  %5 = alloca i64, align 8
  %6 = alloca i64, align 8
  store ptr %0, ptr %4, align 8
  store i64 %1, ptr %5, align 8
  %7 = load ptr, ptr %4, align 8
  %8 = icmp eq ptr %7, null
  br i1 %8, label %12, label %9

9:                                                ; preds = %2
  %10 = load i64, ptr %5, align 8
  %11 = icmp eq i64 %10, 0
  br i1 %11, label %12, label %13

12:                                               ; preds = %9, %2
  store i1 true, ptr %3, align 1
  br label %30

13:                                               ; preds = %9
  store i64 0, ptr %6, align 8
  br label %14

14:                                               ; preds = %26, %13
  %15 = load i64, ptr %6, align 8
  %16 = load i64, ptr %5, align 8
  %17 = icmp slt i64 %15, %16
  br i1 %17, label %18, label %29

18:                                               ; preds = %14
  %19 = load ptr, ptr %4, align 8
  %20 = load i64, ptr %6, align 8
  %21 = getelementptr inbounds double, ptr %19, i64 %20
  %22 = load double, ptr %21, align 8
  %23 = fcmp une double %22, 0.000000e+00
  br i1 %23, label %24, label %25

24:                                               ; preds = %18
  store i1 false, ptr %3, align 1
  br label %30

25:                                               ; preds = %18
  br label %26

26:                                               ; preds = %25
  %27 = load i64, ptr %6, align 8
  %28 = add nsw i64 %27, 1
  store i64 %28, ptr %6, align 8
  br label %14, !llvm.loop !21

29:                                               ; preds = %14
  store i1 true, ptr %3, align 1
  br label %30

30:                                               ; preds = %29, %24, %12
  %31 = load i1, ptr %3, align 1
  ret i1 %31
}