; Function Attrs: mustprogress nofree norecurse nosync nounwind willreturn memory(argmem: read) uwtable
define noundef zeroext i1 @_ZN6casadi10Integrator8all_zeroEPKdx(ptr noundef readonly %0, i64 noundef %1) local_unnamed_addr #9 align 2 {
  %3 = icmp ne ptr %0, null
  %4 = icmp sgt i64 %1, 0
  %or.cond14 = and i1 %3, %4
  br i1 %or.cond14, label %.lr.ph, label %.loopexit

.lr.ph:                                           ; preds = %2, %.lr.ph
  %.011 = phi i64 [ %8, %.lr.ph ], [ 0, %2 ]
  %5 = getelementptr inbounds double, ptr %0, i64 %.011
  %6 = load double, ptr %5, align 8
  %7 = fcmp oeq double %6, 0.000000e+00
  %8 = add nuw nsw i64 %.011, 1
  %exitcond.not = icmp ne i64 %8, %1
  %or.cond.not = select i1 %7, i1 %exitcond.not, i1 false
  br i1 %or.cond.not, label %.lr.ph, label %.loopexit, !llvm.loop !79

.loopexit:                                        ; preds = %.lr.ph, %2
  %.08 = phi i1 [ true, %2 ], [ %7, %.lr.ph ]
  ret i1 %.08
}